; Function Attrs: mustprogress uwtable
define hidden <2 x float> @_ZNK7nanogui9ImageView12pixel_to_posERKNS_5ArrayIfLm2EEE(ptr noundef nonnull align 8 dereferenceable(272) %0, ptr nocapture noundef nonnull readonly align 4 dereferenceable(8) %1) local_unnamed_addr #0 align 2 {
_ZN7nanogui5ArrayIfLm2EEC2Ef.exit.critedge:
  %2 = getelementptr inbounds i8, ptr %0, i64 192
  %3 = load float, ptr %2, align 8
  %4 = fdiv float %3, 5.000000e+00
  %exp2f.i = tail call noundef float @exp2f(float %4)
  %5 = getelementptr inbounds i8, ptr %0, i64 196
  %6 = getelementptr inbounds i8, ptr %0, i64 152
  %7 = load <2 x float>, ptr %1, align 4
  %8 = insertelement <2 x float> poison, float %exp2f.i, i64 0
  %9 = shufflevector <2 x float> %8, <2 x float> poison, <2 x i32> zeroinitializer
  %10 = fmul <2 x float> %9, %7
  %11 = load <2 x float>, ptr %5, align 4
  %12 = fadd <2 x float> %10, %11
  %13 = tail call noundef ptr @_ZNK7nanogui6Widget6screenEv(ptr noundef nonnull align 8 dereferenceable(140) %0)
  %14 = getelementptr inbounds i8, ptr %13, i64 248
  %15 = load float, ptr %14, align 8
  %16 = insertelement <2 x float> poison, float %15, i64 0
  %17 = shufflevector <2 x float> %16, <2 x float> poison, <2 x i32> zeroinitializer
  %18 = fdiv <2 x float> %12, %17
  %19 = fptosi <2 x float> %18 to <2 x i32>
  %20 = load i8, ptr %6, align 8
  %21 = and i8 %20, 1
  %22 = insertelement <2 x i8> poison, i8 %21, i64 0
  %23 = shufflevector <2 x i8> %22, <2 x i8> poison, <2 x i32> zeroinitializer
  %24 = zext nneg <2 x i8> %23 to <2 x i32>
  %25 = add <2 x i32> %19, %24
  %26 = sitofp <2 x i32> %25 to <2 x float>
  ret <2 x float> %26
}